(dp0
S'prototype'
p1
(dp2
S'jsd'
p3
(dp4
S'rand200'
p5
(dp6
I1920
F0.0279
sI1860
F0.03
sI1990
F0.0207
sI1930
F0.0273
sI1870
F0.0291
sI1940
F0.0278
sI1880
F0.0278
sI1950
F0.0278
sI1890
F0.0285
sI1960
F0.0271
sI1900
F0.0286
sI1970
F0.0241
sI1910
F0.0301
sI1980
F0.0243
ssS'syn65'
p7
(dp8
I1920
F0.02
sI1860
F0.0251
sI1990
F0.0104
sI1930
F0.0181
sI1870
F0.0251
sI1940
F0.0144
sI1880
F0.0223
sI1950
F0.015
sI1890
F0.0224
sI1960
F0.0125
sI1900
F0.0212
sI1970
F0.0102
sI1910
F0.0205
sI1980
F0.0103
ssS'frq200'
p9
(dp10
I1920
F0.0296
sI1860
F0.0308
sI1990
F0.0254
sI1930
F0.0283
sI1870
F0.0295
sI1940
F0.0286
sI1880
F0.0293
sI1950
F0.03
sI1890
F0.03
sI1960
F0.0291
sI1900
F0.0293
sI1970
F0.0283
sI1910
F0.0301
sI1980
F0.026
sssS'map'
p11
(dp12
g5
(dp13
I1920
F0.0965
sI1860
F0.1147
sI1990
F0.0801
sI1930
F0.0876
sI1870
F0.1043
sI1940
F0.0877
sI1880
F0.1055
sI1950
F0.0869
sI1890
F0.1106
sI1960
F0.0908
sI1900
F0.107
sI1970
F0.0777
sI1910
F0.0963
sI1980
F0.0775
ssg7
(dp14
I1920
F0.1747
sI1860
F0.1172
sI1990
F0.6566
sI1930
F0.162
sI1870
F0.1236
sI1940
F0.1561
sI1880
F0.1484
sI1950
F0.1597
sI1890
F0.1498
sI1960
F0.1056
sI1900
F0.1711
sI1970
F0.1313
sI1910
F0.1824
sI1980
F0.134
ssg9
(dp15
I1920
F0.1563
sI1860
F0.1266
sI1990
F0.102
sI1930
F0.1729
sI1870
F0.1191
sI1940
F0.1586
sI1880
F0.1331
sI1950
F0.1593
sI1890
F0.1468
sI1960
F0.1113
sI1900
F0.134
sI1970
F0.1189
sI1910
F0.1306
sI1980
F0.1024
sssS'precision'
p16
(dp17
g5
(dp18
I1920
F0.0602
sI1860
F0.057
sI1990
F0.025
sI1930
F0.0563
sI1870
F0.05
sI1940
F0.05
sI1880
F0.055
sI1950
F0.0609
sI1890
F0.0549
sI1960
F0.05
sI1900
F0.0543
sI1970
F0.045
sI1910
F0.0512
sI1980
F0.055
ssg7
(dp19
I1920
F0.095
sI1860
F0.0463
sI1990
F0.035
sI1930
F0.0742
sI1870
F0.065
sI1940
F0.085
sI1880
F0.045
sI1950
F0.06
sI1890
F0.0504
sI1960
F0.06
sI1900
F0.065
sI1970
F0.05
sI1910
F0.085
sI1980
F0.035
ssg9
(dp20
I1920
F0.0576
sI1860
F0.05
sI1990
F0.085
sI1930
F0.0596
sI1870
F0.0589
sI1940
F0.055
sI1880
F0.06
sI1950
F0.0539
sI1890
F0.0648
sI1960
F0.0621
sI1900
F0.065
sI1970
F0.0621
sI1910
F0.0672
sI1980
F0.0625
ssssS'exemplar'
p21
(dp22
g3
(dp23
g5
(dp24
I1920
F0.0563
sI1860
F0.0647
sI1990
F0.0452
sI1930
F0.05
sI1870
F0.0533
sI1940
F0.0445
sI1880
F0.0637
sI1950
F0.0483
sI1890
F0.0578
sI1960
F0.0485
sI1900
F0.0548
sI1970
F0.0457
sI1910
F0.0668
sI1980
F0.036
ssg7
(dp25
I1920
F0.0581
sI1860
F0.0736
sI1990
F0.0509
sI1930
F0.0354
sI1870
F0.0684
sI1940
F0.0419
sI1880
F0.0569
sI1950
F0.041
sI1890
F0.064
sI1960
F0.0104
sI1900
F0.0583
sI1970
F0.0249
sI1910
F0.0507
sI1980
F0.0356
ssg9
(dp26
I1920
F0.0684
sI1860
F0.0754
sI1990
F0.0556
sI1930
F0.0637
sI1870
F0.07
sI1940
F0.0653
sI1880
F0.0698
sI1950
F0.0619
sI1890
F0.0727
sI1960
F0.0563
sI1900
F0.0729
sI1970
F0.0548
sI1910
F0.0693
sI1980
F0.0468
sssg11
(dp27
g5
(dp28
I1920
F0.5263
sI1860
F0.5017
sI1990
F0.5214
sI1930
F0.5382
sI1870
F0.5124
sI1940
F0.5273
sI1880
F0.5105
sI1950
F0.5134
sI1890
F0.5159
sI1960
F0.5271
sI1900
F0.509
sI1970
F0.5309
sI1910
F0.523
sI1980
F0.5464
ssg7
(dp29
I1920
F0.7779
sI1860
F0.6169
sI1990
F1.2439
sI1930
F0.765
sI1870
F0.6385
sI1940
F0.7529
sI1880
F0.6703
sI1950
F0.7507
sI1890
F0.6852
sI1960
F0.7013
sI1900
F0.6984
sI1970
F0.7989
sI1910
F0.7168
sI1980
F0.8177
ssg9
(dp30
I1920
F0.6066
sI1860
F0.5659
sI1990
F0.6283
sI1930
F0.6186
sI1870
F0.5757
sI1940
F0.6183
sI1880
F0.5769
sI1950
F0.6404
sI1890
F0.6016
sI1960
F0.6062
sI1900
F0.6023
sI1970
F0.6149
sI1910
F0.6133
sI1980
F0.6014
sssg16
(dp31
g5
(dp32
I1920
F0.11
sI1860
F0.1211
sI1990
F0.13
sI1930
F0.13
sI1870
F0.125
sI1940
F0.1188
sI1880
F0.115
sI1950
F0.105
sI1890
F0.125
sI1960
F0.105
sI1900
F0.1
sI1970
F0.105
sI1910
F0.13
sI1980
F0.07
ssg7
(dp33
I1920
F0.1414
sI1860
F0.1154
sI1990
F0.1
sI1930
F0.1641
sI1870
F0.125
sI1940
F0.15
sI1880
F0.105
sI1950
F0.125
sI1890
F0.1033
sI1960
F0.155
sI1900
F0.1026
sI1970
F0.1203
sI1910
F0.145
sI1980
F0.08
ssg9
(dp34
I1920
F0.1251
sI1860
F0.1143
sI1990
F0.085
sI1930
F0.1016
sI1870
F0.105
sI1940
F0.1055
sI1880
F0.105
sI1950
F0.0986
sI1890
F0.1148
sI1960
F0.11
sI1900
F0.1237
sI1970
F0.105
sI1910
F0.115
sI1980
F0.1157
ssss.